target datalayout = "e-m:e-p270:32:32-p271:32:32-p272:64:64-i64:64-i128:128-f80:128-n8:16:32:64-S128"
target triple = "x86_64-pc-linux-gnu"

%struct.expert_field = type { i32, i32 }

@hf_pn_io_length_own_chassis_id = internal global i32 0, align 4
@hf_pn_io_own_chassis_id = internal global i32 0, align 4
@hf_pn_io_macadd = internal global i32 0, align 4
@hf_pn_io_ip_address = internal global i32 0, align 4
@hf_pn_io_subnetmask = internal global i32 0, align 4
@hf_pn_io_standard_gateway = internal global i32 0, align 4
@ei_pn_io_block_version = internal global %struct.expert_field zeroinitializer, align 4
@.str.1317 = private unnamed_addr constant [41 x i8] c"Block version %u.%u not implemented yet!\00", align 1

; Function Attrs: nounwind uwtable
define internal i32 @dissect_PDInterfaceDataReal_block(ptr noundef %0, i32 noundef %1, ptr noundef %2, ptr noundef %3, ptr noundef %4, ptr noundef %5, i8 noundef zeroext %6, i8 noundef zeroext %7) #0 {
  %9 = alloca i32, align 4
  %10 = alloca ptr, align 8
  %11 = alloca i32, align 4
  %12 = alloca ptr, align 8
  %13 = alloca ptr, align 8
  %14 = alloca ptr, align 8
  %15 = alloca ptr, align 8
  %16 = alloca i8, align 1
  %17 = alloca i8, align 1
  %18 = alloca i8, align 1
  %19 = alloca [6 x i8], align 1
  %20 = alloca i32, align 4
  store ptr %0, ptr %10, align 8
  store i32 %1, ptr %11, align 4
  store ptr %2, ptr %12, align 8
  store ptr %3, ptr %13, align 8
  store ptr %4, ptr %14, align 8
  store ptr %5, ptr %15, align 8
  store i8 %6, ptr %16, align 1
  store i8 %7, ptr %17, align 1
  %21 = load i8, ptr %16, align 1
  %22 = zext i8 %21 to i32
  %23 = icmp ne i32 %22, 1
  br i1 %23, label %28, label %24

24:                                               ; preds = %8
  %25 = load i8, ptr %17, align 1
  %26 = zext i8 %25 to i32
  %27 = icmp ne i32 %26, 0
  br i1 %27, label %28, label %37

28:                                               ; preds = %24, %8
  %29 = load ptr, ptr %12, align 8
  %30 = load ptr, ptr %14, align 8
  %31 = load i8, ptr %16, align 1
  %32 = zext i8 %31 to i32
  %33 = load i8, ptr %17, align 1
  %34 = zext i8 %33 to i32
  %35 = call ptr (ptr, ptr, ptr, ptr, ...) @expert_add_info_format(ptr noundef %29, ptr noundef %30, ptr noundef @ei_pn_io_block_version, ptr noundef @.str.1317, i32 noundef %32, i32 noundef %34)
  %36 = load i32, ptr %11, align 4
  store i32 %36, ptr %9, align 4
  br label %92

37:                                               ; preds = %24
  %38 = load ptr, ptr %10, align 8
  %39 = load i32, ptr %11, align 4
  %40 = load ptr, ptr %12, align 8
  %41 = load ptr, ptr %13, align 8
  %42 = load ptr, ptr %15, align 8
  %43 = load i32, ptr @hf_pn_io_length_own_chassis_id, align 4
  %44 = call i32 @dissect_dcerpc_uint8(ptr noundef %38, i32 noundef %39, ptr noundef %40, ptr noundef %41, ptr noundef %42, i32 noundef %43, ptr noundef %18)
  store i32 %44, ptr %11, align 4
  %45 = load ptr, ptr %13, align 8
  %46 = load i32, ptr @hf_pn_io_own_chassis_id, align 4
  %47 = load ptr, ptr %10, align 8
  %48 = load i32, ptr %11, align 4
  %49 = load i8, ptr %18, align 1
  %50 = zext i8 %49 to i32
  %51 = call ptr @proto_tree_add_item(ptr noundef %45, i32 noundef %46, ptr noundef %47, i32 noundef %48, i32 noundef %50, i32 noundef 0)
  %52 = load i8, ptr %18, align 1
  %53 = zext i8 %52 to i32
  %54 = load i32, ptr %11, align 4
  %55 = add i32 %54, %53
  store i32 %55, ptr %11, align 4
  %56 = load ptr, ptr %10, align 8
  %57 = load i32, ptr %11, align 4
  %58 = load ptr, ptr %12, align 8
  %59 = load ptr, ptr %13, align 8
  %60 = call i32 @dissect_pn_align4(ptr noundef %56, i32 noundef %57, ptr noundef %58, ptr noundef %59)
  store i32 %60, ptr %11, align 4
  %61 = load ptr, ptr %10, align 8
  %62 = load i32, ptr %11, align 4
  %63 = load ptr, ptr %12, align 8
  %64 = load ptr, ptr %13, align 8
  %65 = load i32, ptr @hf_pn_io_macadd, align 4
  %66 = getelementptr inbounds [6 x i8], ptr %19, i64 0, i64 0
  %67 = call i32 @dissect_pn_mac(ptr noundef %61, i32 noundef %62, ptr noundef %63, ptr noundef %64, i32 noundef %65, ptr noundef %66)
  store i32 %67, ptr %11, align 4
  %68 = load ptr, ptr %10, align 8
  %69 = load i32, ptr %11, align 4
  %70 = load ptr, ptr %12, align 8
  %71 = load ptr, ptr %13, align 8
  %72 = call i32 @dissect_pn_align4(ptr noundef %68, i32 noundef %69, ptr noundef %70, ptr noundef %71)
  store i32 %72, ptr %11, align 4
  %73 = load ptr, ptr %10, align 8
  %74 = load i32, ptr %11, align 4
  %75 = load ptr, ptr %12, align 8
  %76 = load ptr, ptr %13, align 8
  %77 = load i32, ptr @hf_pn_io_ip_address, align 4
  %78 = call i32 @dissect_pn_ipv4(ptr noundef %73, i32 noundef %74, ptr noundef %75, ptr noundef %76, i32 noundef %77, ptr noundef %20)
  store i32 %78, ptr %11, align 4
  %79 = load ptr, ptr %10, align 8
  %80 = load i32, ptr %11, align 4
  %81 = load ptr, ptr %12, align 8
  %82 = load ptr, ptr %13, align 8
  %83 = load i32, ptr @hf_pn_io_subnetmask, align 4
  %84 = call i32 @dissect_pn_ipv4(ptr noundef %79, i32 noundef %80, ptr noundef %81, ptr noundef %82, i32 noundef %83, ptr noundef %20)
  store i32 %84, ptr %11, align 4
  %85 = load ptr, ptr %10, align 8
  %86 = load i32, ptr %11, align 4
  %87 = load ptr, ptr %12, align 8
  %88 = load ptr, ptr %13, align 8
  %89 = load i32, ptr @hf_pn_io_standard_gateway, align 4
  %90 = call i32 @dissect_pn_ipv4(ptr noundef %85, i32 noundef %86, ptr noundef %87, ptr noundef %88, i32 noundef %89, ptr noundef %20)
  store i32 %90, ptr %11, align 4
  %91 = load i32, ptr %11, align 4
  store i32 %91, ptr %9, align 4
  br label %92

92:                                               ; preds = %37, %28
  %93 = load i32, ptr %9, align 4
  ret i32 %93
}