; Function Attrs: nounwind uwtable
define internal fastcc void @dissect_PDInterfaceDataReal_block(ptr noundef %0, i32 noundef %1, ptr noundef %2, ptr noundef %3, ptr noundef %4, ptr noundef %5, i8 noundef zeroext %6, i8 noundef zeroext %7) unnamed_addr #0 {
  %9 = alloca i8, align 1
  %10 = alloca [6 x i8], align 1
  %11 = alloca i32, align 4
  %12 = icmp ne i8 %6, 1
  %13 = icmp ne i8 %7, 0
  %or.cond = or i1 %12, %13
  br i1 %or.cond, label %14, label %18

14:                                               ; preds = %8
  %15 = zext i8 %7 to i32
  %16 = zext i8 %6 to i32
  %17 = tail call ptr (ptr, ptr, ptr, ptr, ...) @expert_add_info_format(ptr noundef %2, ptr noundef %4, ptr noundef nonnull @ei_pn_io_block_version, ptr noundef nonnull @.str.1317, i32 noundef %16, i32 noundef %15) #11
  br label %38

18:                                               ; preds = %8
  %19 = load i32, ptr @hf_pn_io_length_own_chassis_id, align 4
  %20 = call i32 @dissect_dcerpc_uint8(ptr noundef %0, i32 noundef %1, ptr noundef %2, ptr noundef %3, ptr noundef %5, i32 noundef %19, ptr noundef nonnull %9) #11
  %21 = load i32, ptr @hf_pn_io_own_chassis_id, align 4
  %22 = load i8, ptr %9, align 1
  %23 = zext i8 %22 to i32
  %24 = call ptr @proto_tree_add_item(ptr noundef %3, i32 noundef %21, ptr noundef %0, i32 noundef %20, i32 noundef %23, i32 noundef 0) #11
  %25 = load i8, ptr %9, align 1
  %26 = zext i8 %25 to i32
  %27 = add i32 %20, %26
  %28 = call i32 @dissect_pn_align4(ptr noundef %0, i32 noundef %27, ptr noundef %2, ptr noundef %3) #11
  %29 = load i32, ptr @hf_pn_io_macadd, align 4
  %30 = call i32 @dissect_pn_mac(ptr noundef %0, i32 noundef %28, ptr noundef %2, ptr noundef %3, i32 noundef %29, ptr noundef nonnull %10) #11
  %31 = call i32 @dissect_pn_align4(ptr noundef %0, i32 noundef %30, ptr noundef %2, ptr noundef %3) #11
  %32 = load i32, ptr @hf_pn_io_ip_address, align 4
  %33 = call i32 @dissect_pn_ipv4(ptr noundef %0, i32 noundef %31, ptr noundef %2, ptr noundef %3, i32 noundef %32, ptr noundef nonnull %11) #11
  %34 = load i32, ptr @hf_pn_io_subnetmask, align 4
  %35 = call i32 @dissect_pn_ipv4(ptr noundef %0, i32 noundef %33, ptr noundef %2, ptr noundef %3, i32 noundef %34, ptr noundef nonnull %11) #11
  %36 = load i32, ptr @hf_pn_io_standard_gateway, align 4
  %37 = call i32 @dissect_pn_ipv4(ptr noundef %0, i32 noundef %35, ptr noundef %2, ptr noundef %3, i32 noundef %36, ptr noundef nonnull %11) #11
  br label %38

38:                                               ; preds = %18, %14
  ret void
}